# SymbolsHelper-Confirmed: 1.7.9a amd64
libpdal_util.so.7 libpdal-util #MINVER#
 _ZN4pdal10pdal_errorD0Ev@Base 1.7.9a
 _ZN4pdal10pdal_errorD1Ev@Base 1.7.9a
 _ZN4pdal10pdal_errorD2Ev@Base 1.7.9a
 _ZN4pdal12georeference17georeferenceWgs84EddRKNS0_14RotationMatrixES3_RKNS0_3XyzE@Base 1.7.9a
 _ZN4pdal5BOX2D23getDefaultSpatialExtentEv@Base 1.7.9a
 _ZN4pdal5BOX2D4growEd@Base 1.7.9a
 _ZN4pdal5BOX2D4growEdd@Base 1.7.9a
 _ZN4pdal5BOX2D5clearEv@Base 1.7.9a
 _ZN4pdal5BOX3D23getDefaultSpatialExtentEv@Base 1.7.9a
 _ZN4pdal5BOX3D4growEddd@Base 1.7.9a
 _ZN4pdal5BOX3D5clearEv@Base 1.7.9a
 _ZN4pdal5Utils10escapeJSONERKNSt7__cxx1112basic_stringIcSt11char_traitsIcESaIcEEE@Base 1.7.9a
 _ZN4pdal5Utils10replaceAllENSt7__cxx1112basic_stringIcSt11char_traitsIcESaIcEEERKS6_S8_@Base 1.7.9a
 _ZN4pdal5Utils11random_seedEj@Base 1.7.9a
 _ZN4pdal5Utils11screenWidthEv@Base 1.7.9a
 _ZN4pdal5Utils11trimLeadingERNSt7__cxx1112basic_stringIcSt11char_traitsIcESaIcEEE@Base 1.7.9a
 _ZN4pdal5Utils12eatcharacterERSic@Base 1.7.9a
 _ZN4pdal5Utils12trimTrailingERNSt7__cxx1112basic_stringIcSt11char_traitsIcESaIcEEE@Base 1.7.9a
 _ZN4pdal5Utils13backtraceImplEv@Base 1.7.9a
 _ZN4pdal5Utils13base64_decodeERKNSt7__cxx1112basic_stringIcSt11char_traitsIcESaIcEEE@Base 1.7.9a
 _ZN4pdal5Utils13base64_encodeB5cxx11EPKhm@Base 1.7.9a
 _ZN4pdal5Utils13eatwhitespaceERSi@Base 1.7.9a
 _ZN4pdal5Utils13simpleWordexpERKNSt7__cxx1112basic_stringIcSt11char_traitsIcESaIcEEE@Base 1.7.9a
 _ZN4pdal5Utils14portable_popenERKNSt7__cxx1112basic_stringIcSt11char_traitsIcESaIcEEES8_@Base 1.7.9a
 _ZN4pdal5Utils15portable_pcloseEP8_IO_FILE@Base 1.7.9a
 _ZN4pdal5Utils17escapeNonprintingERKNSt7__cxx1112basic_stringIcSt11char_traitsIcESaIcEEE@Base 1.7.9a
 _ZN4pdal5Utils17run_shell_commandERKNSt7__cxx1112basic_stringIcSt11char_traitsIcESaIcEEERS6_@Base 1.7.9a
 _ZN4pdal5Utils18normalizeLongitudeEd@Base 1.7.9a
 _ZN4pdal5Utils6getenvERKNSt7__cxx1112basic_stringIcSt11char_traitsIcESaIcEEERS6_@Base 1.7.9a
 _ZN4pdal5Utils6normalERKdS2_j@Base 1.7.9a
 _ZN4pdal5Utils6randomEdd@Base 1.7.9a
 _ZN4pdal5Utils6setenvERKNSt7__cxx1112basic_stringIcSt11char_traitsIcESaIcEEES8_@Base 1.7.9a
 _ZN4pdal5Utils7hexDumpB5cxx11EPKcm@Base 1.7.9a
 _ZN4pdal5Utils7uniformERKdS2_j@Base 1.7.9a
 _ZN4pdal5Utils8demangleERKNSt7__cxx1112basic_stringIcSt11char_traitsIcESaIcEEE@Base 1.7.9a
 _ZN4pdal5Utils8unsetenvERKNSt7__cxx1112basic_stringIcSt11char_traitsIcESaIcEEE@Base 1.7.9a
 _ZN4pdal5Utils8wordWrapERKNSt7__cxx1112basic_stringIcSt11char_traitsIcESaIcEEEmm@Base 1.7.9a
 _ZN4pdal5Utils9backtraceB5cxx11Ev@Base 1.7.9a
 _ZN4pdal5Utils9wordWrap2ERKNSt7__cxx1112basic_stringIcSt11char_traitsIcESaIcEEEmm@Base 1.7.9a
 _ZN4pdal6Bounds3setERKNS_5BOX2DE@Base 1.7.9a
 _ZN4pdal6Bounds3setERKNS_5BOX3DE@Base 1.7.9a
 _ZN4pdal6BoundsC1ERKNS_5BOX2DE@Base 1.7.9a
 _ZN4pdal6BoundsC1ERKNS_5BOX3DE@Base 1.7.9a
 _ZN4pdal6BoundsC2ERKNS_5BOX2DE@Base 1.7.9a
 _ZN4pdal6BoundsC2ERKNS_5BOX3DE@Base 1.7.9a
 _ZN4pdal7Charbuf10initializeEPcmSt4fposI11__mbstate_tE@Base 1.7.9a
 _ZN4pdal7Charbuf7seekoffElSt12_Ios_SeekdirSt13_Ios_Openmode@Base 1.7.9a
 _ZN4pdal7Charbuf7seekposESt4fposI11__mbstate_tESt13_Ios_Openmode@Base 1.7.9a
 _ZN4pdal7CharbufD0Ev@Base 1.7.9a
 _ZN4pdal7CharbufD1Ev@Base 1.7.9a
 _ZN4pdal7CharbufD2Ev@Base 1.7.9a
 _ZN4pdal9FileUtils10createFileERKNSt7__cxx1112basic_stringIcSt11char_traitsIcESaIcEEEb@Base 1.7.9a
 _ZN4pdal9FileUtils10deleteFileERKNSt7__cxx1112basic_stringIcSt11char_traitsIcESaIcEEE@Base 1.7.9a
 _ZN4pdal9FileUtils10fileExistsERKNSt7__cxx1112basic_stringIcSt11char_traitsIcESaIcEEE@Base 1.7.9a
 _ZN4pdal9FileUtils10renameFileERKNSt7__cxx1112basic_stringIcSt11char_traitsIcESaIcEEES8_@Base 1.7.9a
 _ZN4pdal9FileUtils11getFilenameERKNSt7__cxx1112basic_stringIcSt11char_traitsIcESaIcEEE@Base 1.7.9a
 _ZN4pdal9FileUtils11isDirectoryERKNSt7__cxx1112basic_stringIcSt11char_traitsIcESaIcEEE@Base 1.7.9a
 _ZN4pdal9FileUtils12getDirectoryERKNSt7__cxx1112basic_stringIcSt11char_traitsIcESaIcEEE@Base 1.7.9a
 _ZN4pdal9FileUtils13directoryListERKNSt7__cxx1112basic_stringIcSt11char_traitsIcESaIcEEE@Base 1.7.9a
 _ZN4pdal9FileUtils14isAbsolutePathERKNSt7__cxx1112basic_stringIcSt11char_traitsIcESaIcEEE@Base 1.7.9a
 _ZN4pdal9FileUtils14toAbsolutePathERKNSt7__cxx1112basic_stringIcSt11char_traitsIcESaIcEEE@Base 1.7.9a
 _ZN4pdal9FileUtils14toAbsolutePathERKNSt7__cxx1112basic_stringIcSt11char_traitsIcESaIcEEES6_@Base 1.7.9a
 _ZN4pdal9FileUtils15createDirectoryERKNSt7__cxx1112basic_stringIcSt11char_traitsIcESaIcEEE@Base 1.7.9a
 _ZN4pdal9FileUtils15deleteDirectoryERKNSt7__cxx1112basic_stringIcSt11char_traitsIcESaIcEEE@Base 1.7.9a
 _ZN4pdal9FileUtils15directoryExistsERKNSt7__cxx1112basic_stringIcSt11char_traitsIcESaIcEEE@Base 1.7.9a
 _ZN4pdal9FileUtils17createDirectoriesERKNSt7__cxx1112basic_stringIcSt11char_traitsIcESaIcEEE@Base 1.7.9a
 _ZN4pdal9FileUtils18readFileIntoStringERKNSt7__cxx1112basic_stringIcSt11char_traitsIcESaIcEEE@Base 1.7.9a
 _ZN4pdal9FileUtils4globENSt7__cxx1112basic_stringIcSt11char_traitsIcESaIcEEE@Base 1.7.9a
 _ZN4pdal9FileUtils4stemERKNSt7__cxx1112basic_stringIcSt11char_traitsIcESaIcEEE@Base 1.7.9a
 _ZN4pdal9FileUtils6getcwdB5cxx11Ev@Base 1.7.9a
 _ZN4pdal9FileUtils8fileSizeERKNSt7__cxx1112basic_stringIcSt11char_traitsIcESaIcEEE@Base 1.7.9a
 _ZN4pdal9FileUtils8openFileERKNSt7__cxx1112basic_stringIcSt11char_traitsIcESaIcEEEb@Base 1.7.9a
 _ZN4pdal9FileUtils9closeFileEPSi@Base 1.7.9a
 _ZN4pdal9FileUtils9closeFileEPSo@Base 1.7.9a
 _ZN4pdal9FileUtils9extensionERKNSt7__cxx1112basic_stringIcSt11char_traitsIcESaIcEEE@Base 1.7.9a
 _ZN4pdal9FileUtils9fileTimesERKNSt7__cxx1112basic_stringIcSt11char_traitsIcESaIcEEEP2tmSA_@Base 1.7.9a
 _ZN4pdallsERSoRKNS_6BoundsE@Base 1.7.9a
 _ZN4pdalrsERSiRNS_5BOX2DE@Base 1.7.9a
 _ZN4pdalrsERSiRNS_5BOX3DE@Base 1.7.9a
 _ZN4pdalrsERSiRNS_6BoundsE@Base 1.7.9a
 (optional=templinst)_ZN9__gnu_cxx12__to_xstringINSt7__cxx1112basic_stringIcSt11char_traitsIcESaIcEEEcEET_PFiPT0_mPKS8_P13__va_list_tagEmSB_z@Base 1.7.9a
 _ZN9pdalboost10filesystem11path_traits8dispatchERKNS0_15directory_entryERNSt7__cxx1112basic_stringIcSt11char_traitsIcESaIcEEE@Base 1.7.9a
 _ZN9pdalboost10filesystem11path_traits8dispatchERKNS0_15directory_entryERNSt7__cxx1112basic_stringIcSt11char_traitsIcESaIcEEERKSt7codecvtIwc11__mbstate_tE@Base 1.7.9a
 _ZN9pdalboost10filesystem16filesystem_error5m_impD1Ev@Base 1.7.9a
 _ZN9pdalboost10filesystem16filesystem_error5m_impD2Ev@Base 1.7.9a
 _ZN9pdalboost10filesystem16filesystem_errorC1ERKNSt7__cxx1112basic_stringIcSt11char_traitsIcESaIcEEERKNS0_4pathENS_6system10error_codeE@Base 1.7.9a
 _ZN9pdalboost10filesystem16filesystem_errorC1ERKNSt7__cxx1112basic_stringIcSt11char_traitsIcESaIcEEERKNS0_4pathESC_NS_6system10error_codeE@Base 1.7.9a
 _ZN9pdalboost10filesystem16filesystem_errorC2ERKNSt7__cxx1112basic_stringIcSt11char_traitsIcESaIcEEERKNS0_4pathENS_6system10error_codeE@Base 1.7.9a
 _ZN9pdalboost10filesystem16filesystem_errorC2ERKNSt7__cxx1112basic_stringIcSt11char_traitsIcESaIcEEERKNS0_4pathESC_NS_6system10error_codeE@Base 1.7.9a
 _ZN9pdalboost10filesystem16filesystem_errorD0Ev@Base 1.7.9a
 _ZN9pdalboost10filesystem16filesystem_errorD1Ev@Base 1.7.9a
 _ZN9pdalboost10filesystem16filesystem_errorD2Ev@Base 1.7.9a
 _ZN9pdalboost10filesystem18directory_iteratorD1Ev@Base 1.7.9a
 _ZN9pdalboost10filesystem18directory_iteratorD2Ev@Base 1.7.9a
 _ZN9pdalboost10filesystem4path15remove_filenameEv@Base 1.7.9a
 _ZN9pdalboost10filesystem4path17replace_extensionERKS1_@Base 1.7.9a
 _ZN9pdalboost10filesystem4path25m_path_iterator_decrementERNS1_8iteratorE@Base 1.7.9a
 _ZN9pdalboost10filesystem4path25m_path_iterator_incrementERNS1_8iteratorE@Base 1.7.9a
 _ZN9pdalboost10filesystem4path25remove_trailing_separatorEv@Base 1.7.9a
 _ZN9pdalboost10filesystem4path27m_erase_redundant_separatorEm@Base 1.7.9a
 _ZN9pdalboost10filesystem4path28m_append_separator_if_neededEv@Base 1.7.9a
 _ZN9pdalboost10filesystem4path5imbueERKSt6locale@Base 1.7.9a
 _ZN9pdalboost10filesystem4path7codecvtEv@Base 1.7.9a
 _ZN9pdalboost10filesystem4pathD1Ev@Base 1.7.9a
 _ZN9pdalboost10filesystem4pathD2Ev@Base 1.7.9a
 _ZN9pdalboost10filesystem4pathdVEPKc@Base 1.7.9a
 _ZN9pdalboost10filesystem4pathdVERKS1_@Base 1.7.9a
 _ZN9pdalboost10filesystem6detail10equivalentERKNS0_4pathES4_PNS_6system10error_codeE@Base 1.7.9a
 _ZN9pdalboost10filesystem6detail10remove_allERKNS0_4pathEPNS_6system10error_codeE@Base 1.7.9a
 _ZN9pdalboost10filesystem6detail11dir_itr_impD1Ev@Base 1.7.9a
 _ZN9pdalboost10filesystem6detail11dir_itr_impD2Ev@Base 1.7.9a
 _ZN9pdalboost10filesystem6detail11lex_compareENS0_4path8iteratorES3_S3_S3_@Base 1.7.9a
 _ZN9pdalboost10filesystem6detail11permissionsERKNS0_4pathENS0_5permsEPNS_6system10error_codeE@Base 1.7.9a
 _ZN9pdalboost10filesystem6detail11resize_fileERKNS0_4pathEmPNS_6system10error_codeE@Base 1.7.9a
 _ZN9pdalboost10filesystem6detail12copy_symlinkERKNS0_4pathES4_PNS_6system10error_codeE@Base 1.7.9a
 _ZN9pdalboost10filesystem6detail12current_pathEPNS_6system10error_codeE@Base 1.7.9a
 _ZN9pdalboost10filesystem6detail12current_pathERKNS0_4pathEPNS_6system10error_codeE@Base 1.7.9a
 _ZN9pdalboost10filesystem6detail12dot_dot_pathEv@Base 1.7.9a
 _ZN9pdalboost10filesystem6detail12initial_pathEPNS_6system10error_codeE@Base 1.7.9a
 _ZN9pdalboost10filesystem6detail12read_symlinkERKNS0_4pathEPNS_6system10error_codeE@Base 1.7.9a
 _ZN9pdalboost10filesystem6detail13dir_itr_closeERPvS3_@Base 1.7.9a
 _ZN9pdalboost10filesystem6detail14copy_directoryERKNS0_4pathES4_PNS_6system10error_codeE@Base 1.7.9a
 _ZN9pdalboost10filesystem6detail14create_symlinkERKNS0_4pathES4_PNS_6system10error_codeE@Base 1.7.9a
 _ZN9pdalboost10filesystem6detail14symlink_statusERKNS0_4pathEPNS_6system10error_codeE@Base 1.7.9a
 _ZN9pdalboost10filesystem6detail15hard_link_countERKNS0_4pathEPNS_6system10error_codeE@Base 1.7.9a
 _ZN9pdalboost10filesystem6detail15last_write_timeERKNS0_4pathEPNS_6system10error_codeE@Base 1.7.9a
 _ZN9pdalboost10filesystem6detail15last_write_timeERKNS0_4pathElPNS_6system10error_codeE@Base 1.7.9a
 _ZN9pdalboost10filesystem6detail15system_completeERKNS0_4pathEPNS_6system10error_codeE@Base 1.7.9a
 _ZN9pdalboost10filesystem6detail16create_directoryERKNS0_4pathEPNS_6system10error_codeE@Base 1.7.9a
 _ZN9pdalboost10filesystem6detail16create_hard_linkERKNS0_4pathES4_PNS_6system10error_codeE@Base 1.7.9a
 _ZN9pdalboost10filesystem6detail16weakly_canonicalERKNS0_4pathEPNS_6system10error_codeE@Base 1.7.9a
 _ZN9pdalboost10filesystem6detail18create_directoriesERKNS0_4pathEPNS_6system10error_codeE@Base 1.7.9a
 _ZN9pdalboost10filesystem6detail19temp_directory_pathEPNS_6system10error_codeE@Base 1.7.9a
 _ZN9pdalboost10filesystem6detail24create_directory_symlinkERKNS0_4pathES4_PNS_6system10error_codeE@Base 1.7.9a
 _ZN9pdalboost10filesystem6detail28directory_iterator_constructERNS0_18directory_iteratorERKNS0_4pathEPNS_6system10error_codeE@Base 1.7.9a
 _ZN9pdalboost10filesystem6detail28directory_iterator_incrementERNS0_18directory_iteratorEPNS_6system10error_codeE@Base 1.7.9a
 _ZN9pdalboost10filesystem6detail32possible_large_file_size_supportEv@Base 1.7.9a
 _ZN9pdalboost10filesystem6detail4copyERKNS0_4pathES4_PNS_6system10error_codeE@Base 1.7.9a
 _ZN9pdalboost10filesystem6detail5spaceERKNS0_4pathEPNS_6system10error_codeE@Base 1.7.9a
 _ZN9pdalboost10filesystem6detail6removeERKNS0_4pathEPNS_6system10error_codeE@Base 1.7.9a
 _ZN9pdalboost10filesystem6detail6renameERKNS0_4pathES4_PNS_6system10error_codeE@Base 1.7.9a
 _ZN9pdalboost10filesystem6detail6statusERKNS0_4pathEPNS_6system10error_codeE@Base 1.7.9a
 _ZN9pdalboost10filesystem6detail8dot_pathEv@Base 1.7.9a
 _ZN9pdalboost10filesystem6detail8is_emptyERKNS0_4pathEPNS_6system10error_codeE@Base 1.7.9a
 _ZN9pdalboost10filesystem6detail8relativeERKNS0_4pathES4_PNS_6system10error_codeE@Base 1.7.9a
 _ZN9pdalboost10filesystem6detail9canonicalERKNS0_4pathES4_PNS_6system10error_codeE@Base 1.7.9a
 _ZN9pdalboost10filesystem6detail9copy_fileERKNS0_4pathES4_NS1_11copy_optionEPNS_6system10error_codeE@Base 1.7.9a
 _ZN9pdalboost10filesystem6detail9file_sizeERKNS0_4pathEPNS_6system10error_codeE@Base 1.7.9a
 _ZN9pdalboost10filesystem8absoluteERKNS0_4pathES3_@Base 1.7.9a
 (optional=templinst)_ZN9pdalboost10shared_ptrINS_10filesystem16filesystem_error5m_impEE5resetEv@Base 1.7.9a
 (optional=templinst)_ZN9pdalboost10shared_ptrINS_10filesystem16filesystem_error5m_impEE5resetIS3_EEvPT_@Base 1.7.9a
 _ZN9pdalboost6detail15sp_counted_base7destroyEv@Base 1.7.9a
 (optional=templinst)_ZN9pdalboost6detail17sp_counted_impl_pINS_10filesystem16filesystem_error5m_impEE11get_deleterERKSt9type_info@Base 1.7.9a
 (optional=templinst)_ZN9pdalboost6detail17sp_counted_impl_pINS_10filesystem16filesystem_error5m_impEE19get_untyped_deleterEv@Base 1.7.9a
 (optional=templinst)_ZN9pdalboost6detail17sp_counted_impl_pINS_10filesystem16filesystem_error5m_impEE7disposeEv@Base 1.7.9a
 (optional=templinst)_ZN9pdalboost6detail17sp_counted_impl_pINS_10filesystem16filesystem_error5m_impEED0Ev@Base 1.7.9a
 (optional=templinst)_ZN9pdalboost6detail17sp_counted_impl_pINS_10filesystem16filesystem_error5m_impEED1Ev@Base 1.7.9a
 (optional=templinst)_ZN9pdalboost6detail17sp_counted_impl_pINS_10filesystem16filesystem_error5m_impEED2Ev@Base 1.7.9a
 (optional=templinst)_ZN9pdalboost6detail17sp_counted_impl_pINS_10filesystem6detail11dir_itr_impEE11get_deleterERKSt9type_info@Base 1.7.9a
 (optional=templinst)_ZN9pdalboost6detail17sp_counted_impl_pINS_10filesystem6detail11dir_itr_impEE19get_untyped_deleterEv@Base 1.7.9a
 (optional=templinst)_ZN9pdalboost6detail17sp_counted_impl_pINS_10filesystem6detail11dir_itr_impEE7disposeEv@Base 1.7.9a
 (optional=templinst)_ZN9pdalboost6detail17sp_counted_impl_pINS_10filesystem6detail11dir_itr_impEED0Ev@Base 1.7.9a
 (optional=templinst)_ZN9pdalboost6detail17sp_counted_impl_pINS_10filesystem6detail11dir_itr_impEED1Ev@Base 1.7.9a
 (optional=templinst)_ZN9pdalboost6detail17sp_counted_impl_pINS_10filesystem6detail11dir_itr_impEED2Ev@Base 1.7.9a
 _ZN9pdalboost6system12system_errorD0Ev@Base 1.7.9a
 _ZN9pdalboost6system12system_errorD1Ev@Base 1.7.9a
 _ZN9pdalboost6system12system_errorD2Ev@Base 1.7.9a
 _ZN9pdalboost6system15system_categoryEv@Base 1.7.9a
 _ZN9pdalboost6system16generic_categoryEv@Base 1.7.9a
 _ZNK4pdal5BOX2D5emptyEv@Base 1.7.9a
 _ZNK4pdal5BOX2D5validEv@Base 1.7.9a
 _ZNK4pdal5BOX3D5emptyEv@Base 1.7.9a
 _ZNK4pdal5BOX3D5validEv@Base 1.7.9a
 _ZNK4pdal6Bounds4is3dEv@Base 1.7.9a
 _ZNK4pdal6Bounds4to2dEv@Base 1.7.9a
 _ZNK4pdal6Bounds4to3dEv@Base 1.7.9a
 _ZNK9pdalboost10filesystem15directory_entry12m_get_statusEPNS_6system10error_codeE@Base 1.7.9a
 _ZNK9pdalboost10filesystem15directory_entry20m_get_symlink_statusEPNS_6system10error_codeE@Base 1.7.9a
 _ZNK9pdalboost10filesystem16filesystem_error4whatEv@Base 1.7.9a
 _ZNK9pdalboost10filesystem4path11parent_pathEv@Base 1.7.9a
 _ZNK9pdalboost10filesystem4path13relative_pathEv@Base 1.7.9a
 _ZNK9pdalboost10filesystem4path14root_directoryEv@Base 1.7.9a
 _ZNK9pdalboost10filesystem4path16lexically_normalEv@Base 1.7.9a
 _ZNK9pdalboost10filesystem4path17m_parent_path_endEv@Base 1.7.9a
 _ZNK9pdalboost10filesystem4path18lexically_relativeERKS1_@Base 1.7.9a
 _ZNK9pdalboost10filesystem4path3endEv@Base 1.7.9a
 _ZNK9pdalboost10filesystem4path4stemEv@Base 1.7.9a
 _ZNK9pdalboost10filesystem4path5beginEv@Base 1.7.9a
 _ZNK9pdalboost10filesystem4path7compareERKS1_@Base 1.7.9a
 _ZNK9pdalboost10filesystem4path8filenameEv@Base 1.7.9a
 _ZNK9pdalboost10filesystem4path9extensionEv@Base 1.7.9a
 _ZNK9pdalboost10filesystem4path9root_nameEv@Base 1.7.9a
 _ZNK9pdalboost10filesystem4path9root_pathEv@Base 1.7.9a
 _ZNK9pdalboost6system12system_error4whatEv@Base 1.7.9a
 _ZNK9pdalboost6system14error_category10equivalentERKNS0_10error_codeEi@Base 1.7.9a
 _ZNK9pdalboost6system14error_category10equivalentEiRKNS0_15error_conditionE@Base 1.7.9a
 _ZNK9pdalboost6system14error_category23default_error_conditionEi@Base 1.7.9a
 (optional=templinst)_ZNKSt5ctypeIcE8do_widenEc@Base 1.7.9a
 (optional=templinst)_ZNSt5dequeIN4pdal5Utils14BacktraceEntryESaIS2_EED1Ev@Base 1.7.9a
 (optional=templinst)_ZNSt5dequeIN4pdal5Utils14BacktraceEntryESaIS2_EED2Ev@Base 1.7.9a
 (optional=templinst)_ZNSt6vectorINSt7__cxx1112basic_stringIcSt11char_traitsIcESaIcEEESaIS5_EE12emplace_backIJS5_EEEvDpOT_@Base 1.7.9a
 (optional=templinst)_ZNSt6vectorINSt7__cxx1112basic_stringIcSt11char_traitsIcESaIcEEESaIS5_EE17_M_realloc_insertIJRKS5_EEEvN9__gnu_cxx17__normal_iteratorIPS5_S7_EEDpOT_@Base 1.7.9a
 (optional=templinst)_ZNSt6vectorINSt7__cxx1112basic_stringIcSt11char_traitsIcESaIcEEESaIS5_EE17_M_realloc_insertIJS5_EEEvN9__gnu_cxx17__normal_iteratorIPS5_S7_EEDpOT_@Base 1.7.9a
 (optional=templinst)_ZNSt6vectorINSt7__cxx1112basic_stringIcSt11char_traitsIcESaIcEEESaIS5_EEC1ESt16initializer_listIS5_ERKS6_@Base 1.7.9a
 (optional=templinst)_ZNSt6vectorINSt7__cxx1112basic_stringIcSt11char_traitsIcESaIcEEESaIS5_EEC2ESt16initializer_listIS5_ERKS6_@Base 1.7.9a
 (optional=templinst)_ZNSt6vectorINSt7__cxx1112basic_stringIcSt11char_traitsIcESaIcEEESaIS5_EED1Ev@Base 1.7.9a
 (optional=templinst)_ZNSt6vectorINSt7__cxx1112basic_stringIcSt11char_traitsIcESaIcEEESaIS5_EED2Ev@Base 1.7.9a
 (optional=templinst)_ZNSt6vectorIdSaIdEE17_M_realloc_insertIJRKdEEEvN9__gnu_cxx17__normal_iteratorIPdS1_EEDpOT_@Base 1.7.9a
 (optional=templinst)_ZNSt6vectorIhSaIhEE17_M_realloc_insertIJRKhEEEvN9__gnu_cxx17__normal_iteratorIPhS1_EEDpOT_@Base 1.7.9a
 (optional=templinst)_ZNSt7__cxx1112basic_stringIcSt11char_traitsIcESaIcEE12_M_constructISt19istreambuf_iteratorIcS2_EEEvT_S8_St18input_iterator_tag@Base 1.7.9a
 (optional=templinst)_ZNSt7__cxx1115basic_stringbufIcSt11char_traitsIcESaIcEED0Ev@Base 1.7.9a
 (optional=templinst)_ZNSt7__cxx1115basic_stringbufIcSt11char_traitsIcESaIcEED1Ev@Base 1.7.9a
 (optional=templinst)_ZNSt7__cxx1115basic_stringbufIcSt11char_traitsIcESaIcEED2Ev@Base 1.7.9a
 (optional=templinst)_ZSt18generate_canonicalIdLm53ESt23mersenne_twister_engineImLm32ELm624ELm397ELm31ELm2567483615ELm11ELm4294967295ELm7ELm2636928640ELm15ELm4022730752ELm18ELm1812433253EEET_RT1_@Base 1.7.9a
 _ZTIN4pdal10pdal_errorE@Base 1.7.9a
 _ZTIN4pdal7CharbufE@Base 1.7.9a
 _ZTIN9pdalboost10filesystem16filesystem_errorE@Base 1.7.9a
 _ZTIN9pdalboost12noncopyable_11noncopyableE@Base 1.7.9a
 _ZTIN9pdalboost6detail15sp_counted_baseE@Base 1.7.9a
 _ZTIN9pdalboost6detail17sp_counted_impl_pINS_10filesystem16filesystem_error5m_impEEE@Base 1.7.9a
 _ZTIN9pdalboost6detail17sp_counted_impl_pINS_10filesystem6detail11dir_itr_impEEE@Base 1.7.9a
 _ZTIN9pdalboost6system12system_errorE@Base 1.7.9a
 _ZTIN9pdalboost6system14error_categoryE@Base 1.7.9a
 _ZTSN4pdal10pdal_errorE@Base 1.7.9a
 _ZTSN4pdal7CharbufE@Base 1.7.9a
 _ZTSN9pdalboost10filesystem16filesystem_errorE@Base 1.7.9a
 _ZTSN9pdalboost12noncopyable_11noncopyableE@Base 1.7.9a
 _ZTSN9pdalboost6detail15sp_counted_baseE@Base 1.7.9a
 _ZTSN9pdalboost6detail17sp_counted_impl_pINS_10filesystem16filesystem_error5m_impEEE@Base 1.7.9a
 _ZTSN9pdalboost6detail17sp_counted_impl_pINS_10filesystem6detail11dir_itr_impEEE@Base 1.7.9a
 _ZTSN9pdalboost6system12system_errorE@Base 1.7.9a
 _ZTSN9pdalboost6system14error_categoryE@Base 1.7.9a
 _ZTVN4pdal10pdal_errorE@Base 1.7.9a
 _ZTVN4pdal7CharbufE@Base 1.7.9a
 _ZTVN9pdalboost10filesystem16filesystem_errorE@Base 1.7.9a
 _ZTVN9pdalboost6detail17sp_counted_impl_pINS_10filesystem16filesystem_error5m_impEEE@Base 1.7.9a
 _ZTVN9pdalboost6detail17sp_counted_impl_pINS_10filesystem6detail11dir_itr_impEEE@Base 1.7.9a
 _ZTVN9pdalboost6system12system_errorE@Base 1.7.9a
